; Function Attrs: nounwind uwtable
define ptr @l_Lean_KVMap_updateNat(ptr noundef %0, ptr noundef %1, ptr noundef %2) local_unnamed_addr #0 {
  %4 = tail call ptr @l_Lean_KVMap_getNat(ptr noundef %0, ptr noundef %1, ptr noundef nonnull inttoptr (i64 1 to ptr))
  %5 = tail call ptr @lean_apply_1(ptr noundef %2, ptr noundef %4) #6
  tail call void @lean_inc_heartbeat() #6
  %6 = tail call noalias ptr @mi_malloc_small(i64 noundef 16) #6
  %7 = icmp eq ptr %6, null
  br i1 %7, label %8, label %lean_alloc_ctor.exit

8:                                                ; preds = %3
  tail call void @lean_internal_panic_out_of_memory() #7
  unreachable

lean_alloc_ctor.exit:                             ; preds = %3
  %9 = getelementptr inbounds nuw i8, ptr %6, i64 4
  store i32 1, ptr %6, align 4, !tbaa !8
  store i32 50397200, ptr %9, align 4
  %10 = getelementptr inbounds nuw i8, ptr %6, i64 8
  store ptr %5, ptr %10, align 8, !tbaa !4
  %11 = tail call ptr @l_Lean_KVMap_insertCore(ptr noundef %0, ptr noundef %1, ptr noundef nonnull %6)
  ret ptr %11
}